	.section	__TEXT,__text,regular,pure_instructions
	.build_version macos, 11, 0	sdk_version 11, 1
	.file	1 "/Library/Developer/CommandLineTools/SDKs/MacOSX.sdk/usr/include/sys/_pthread" "_pthread_types.h"
	.file	2 "/Library/Developer/CommandLineTools/SDKs/MacOSX.sdk/usr/include/sys/_pthread" "_pthread_mutex_t.h"
	.file	3 "/Users/paterakis/NTUA/6th Sem/\316\241\316\277\316\267 \316\245/\316\233\316\265\316\271\317\204\316\277\317\205\317\201\316\263\316\271\316\272\316\254 \316\243\317\205\317\203\317\204\316\256\316\274\316\261\317\204\316\261 \316\245\317\200\316\277\316\273\316\277\316\263\316\271\317\203\317\204\317\216\316\275/\316\225\317\201\316\263\316\261\317\203\317\204\316\256\317\201\316\271\316\277/3rd" "simplesync.c"
	.globl	_increase_fn            ## -- Begin function increase_fn
	.p2align	4, 0x90
_increase_fn:                           ## @increase_fn
Lfunc_begin0:
	.loc	3 41 0                  ## simplesync.c:41:0
	.cfi_startproc
## %bb.0:
	##DEBUG_VALUE: increase_fn:arg <- $rdi
	pushq	%rbp
	.cfi_def_cfa_offset 16
	.cfi_offset %rbp, -16
	movq	%rsp, %rbp
	.cfi_def_cfa_register %rbp
	pushq	%r15
	pushq	%r14
	pushq	%rbx
	pushq	%rax
	.cfi_offset %rbx, -40
	.cfi_offset %r14, -32
	.cfi_offset %r15, -24
Ltmp0:
	##DEBUG_VALUE: increase_fn:ip <- $rdi
	movq	%rdi, %rbx
Ltmp1:
	##DEBUG_VALUE: increase_fn:ip <- $rbx
	##DEBUG_VALUE: increase_fn:arg <- $rbx
	.loc	3 45 17 prologue_end    ## simplesync.c:45:17
	movq	___stderrp@GOTPCREL(%rip), %r14
	movq	(%r14), %rdi
	.loc	3 45 9 is_stmt 0        ## simplesync.c:45:9
	leaq	L_.str(%rip), %rsi
	movl	$10000000, %r15d        ## imm = 0x989680
	movl	$10000000, %edx         ## imm = 0x989680
	xorl	%eax, %eax
	callq	_fprintf
Ltmp2:
	##DEBUG_VALUE: increase_fn:i <- 0
	.p2align	4, 0x90
LBB0_1:                                 ## =>This Inner Loop Header: Depth=1
	##DEBUG_VALUE: increase_fn:arg <- $rbx
	##DEBUG_VALUE: increase_fn:ip <- $rbx
	##DEBUG_VALUE: increase_fn:i <- undef
	.loc	3 49 25 is_stmt 1       ## simplesync.c:49:25
	lock		incl	(%rbx)
Ltmp3:
	##DEBUG_VALUE: increase_fn:i <- [DW_OP_plus_uconst 1, DW_OP_stack_value] undef
	lock		incl	(%rbx)
Ltmp4:
	##DEBUG_VALUE: increase_fn:i <- [DW_OP_plus_uconst 2, DW_OP_stack_value] undef
	lock		incl	(%rbx)
Ltmp5:
	##DEBUG_VALUE: increase_fn:i <- [DW_OP_plus_uconst 3, DW_OP_stack_value] undef
	lock		incl	(%rbx)
Ltmp6:
	##DEBUG_VALUE: increase_fn:i <- [DW_OP_plus_uconst 4, DW_OP_stack_value] undef
	lock		incl	(%rbx)
Ltmp7:
	##DEBUG_VALUE: increase_fn:i <- [DW_OP_plus_uconst 5, DW_OP_stack_value] undef
	lock		incl	(%rbx)
Ltmp8:
	##DEBUG_VALUE: increase_fn:i <- [DW_OP_plus_uconst 6, DW_OP_stack_value] undef
	lock		incl	(%rbx)
Ltmp9:
	##DEBUG_VALUE: increase_fn:i <- [DW_OP_plus_uconst 7, DW_OP_stack_value] undef
	lock		incl	(%rbx)
Ltmp10:
	##DEBUG_VALUE: increase_fn:i <- [DW_OP_plus_uconst 8, DW_OP_stack_value] undef
	lock		incl	(%rbx)
Ltmp11:
	##DEBUG_VALUE: increase_fn:i <- [DW_OP_plus_uconst 9, DW_OP_stack_value] undef
	lock		incl	(%rbx)
Ltmp12:
	##DEBUG_VALUE: increase_fn:i <- [DW_OP_plus_uconst 10, DW_OP_stack_value] undef
	.loc	3 46 23                 ## simplesync.c:46:23
	addl	$-10, %r15d
Ltmp13:
	.loc	3 46 9 is_stmt 0        ## simplesync.c:46:9
	jne	LBB0_1
Ltmp14:
## %bb.2:
	##DEBUG_VALUE: increase_fn:arg <- $rbx
	##DEBUG_VALUE: increase_fn:ip <- $rbx
	.loc	3 62 17 is_stmt 1       ## simplesync.c:62:17
	movq	(%r14), %rcx
	.loc	3 62 9 is_stmt 0        ## simplesync.c:62:9
	leaq	L_.str.1(%rip), %rdi
	movl	$26, %esi
	movl	$1, %edx
	callq	_fwrite
Ltmp15:
	.loc	3 64 9 is_stmt 1        ## simplesync.c:64:9
	xorl	%eax, %eax
	addq	$8, %rsp
	popq	%rbx
Ltmp16:
	popq	%r14
	popq	%r15
	popq	%rbp
	retq
Ltmp17:
Lfunc_end0:
	.cfi_endproc
                                        ## -- End function
	.globl	_decrease_fn            ## -- Begin function decrease_fn
	.p2align	4, 0x90
_decrease_fn:                           ## @decrease_fn
Lfunc_begin1:
	.loc	3 68 0                  ## simplesync.c:68:0
	.cfi_startproc
## %bb.0:
	##DEBUG_VALUE: decrease_fn:arg <- $rdi
	pushq	%rbp
	.cfi_def_cfa_offset 16
	.cfi_offset %rbp, -16
	movq	%rsp, %rbp
	.cfi_def_cfa_register %rbp
	pushq	%r15
	pushq	%r14
	pushq	%rbx
	pushq	%rax
	.cfi_offset %rbx, -40
	.cfi_offset %r14, -32
	.cfi_offset %r15, -24
Ltmp18:
	##DEBUG_VALUE: decrease_fn:ip <- $rdi
	movq	%rdi, %rbx
Ltmp19:
	##DEBUG_VALUE: decrease_fn:ip <- $rbx
	##DEBUG_VALUE: decrease_fn:arg <- $rbx
	.loc	3 72 17 prologue_end    ## simplesync.c:72:17
	movq	___stderrp@GOTPCREL(%rip), %r14
	movq	(%r14), %rdi
	.loc	3 72 9 is_stmt 0        ## simplesync.c:72:9
	leaq	L_.str.2(%rip), %rsi
	movl	$10000000, %r15d        ## imm = 0x989680
	movl	$10000000, %edx         ## imm = 0x989680
	xorl	%eax, %eax
	callq	_fprintf
Ltmp20:
	##DEBUG_VALUE: decrease_fn:i <- 0
	.p2align	4, 0x90
LBB1_1:                                 ## =>This Inner Loop Header: Depth=1
	##DEBUG_VALUE: decrease_fn:arg <- $rbx
	##DEBUG_VALUE: decrease_fn:ip <- $rbx
	##DEBUG_VALUE: decrease_fn:i <- undef
	.loc	3 76 25 is_stmt 1       ## simplesync.c:76:25
	lock		decl	(%rbx)
Ltmp21:
	##DEBUG_VALUE: decrease_fn:i <- [DW_OP_plus_uconst 1, DW_OP_stack_value] undef
	lock		decl	(%rbx)
Ltmp22:
	##DEBUG_VALUE: decrease_fn:i <- [DW_OP_plus_uconst 2, DW_OP_stack_value] undef
	lock		decl	(%rbx)
Ltmp23:
	##DEBUG_VALUE: decrease_fn:i <- [DW_OP_plus_uconst 3, DW_OP_stack_value] undef
	lock		decl	(%rbx)
Ltmp24:
	##DEBUG_VALUE: decrease_fn:i <- [DW_OP_plus_uconst 4, DW_OP_stack_value] undef
	lock		decl	(%rbx)
Ltmp25:
	##DEBUG_VALUE: decrease_fn:i <- [DW_OP_plus_uconst 5, DW_OP_stack_value] undef
	lock		decl	(%rbx)
Ltmp26:
	##DEBUG_VALUE: decrease_fn:i <- [DW_OP_plus_uconst 6, DW_OP_stack_value] undef
	lock		decl	(%rbx)
Ltmp27:
	##DEBUG_VALUE: decrease_fn:i <- [DW_OP_plus_uconst 7, DW_OP_stack_value] undef
	lock		decl	(%rbx)
Ltmp28:
	##DEBUG_VALUE: decrease_fn:i <- [DW_OP_plus_uconst 8, DW_OP_stack_value] undef
	lock		decl	(%rbx)
Ltmp29:
	##DEBUG_VALUE: decrease_fn:i <- [DW_OP_plus_uconst 9, DW_OP_stack_value] undef
	lock		decl	(%rbx)
Ltmp30:
	##DEBUG_VALUE: decrease_fn:i <- [DW_OP_plus_uconst 10, DW_OP_stack_value] undef
	.loc	3 73 23                 ## simplesync.c:73:23
	addl	$-10, %r15d
Ltmp31:
	.loc	3 73 9 is_stmt 0        ## simplesync.c:73:9
	jne	LBB1_1
Ltmp32:
## %bb.2:
	##DEBUG_VALUE: decrease_fn:arg <- $rbx
	##DEBUG_VALUE: decrease_fn:ip <- $rbx
	.loc	3 89 17 is_stmt 1       ## simplesync.c:89:17
	movq	(%r14), %rcx
	.loc	3 89 9 is_stmt 0        ## simplesync.c:89:9
	leaq	L_.str.3(%rip), %rdi
	movl	$26, %esi
	movl	$1, %edx
	callq	_fwrite
Ltmp33:
	.loc	3 91 9 is_stmt 1        ## simplesync.c:91:9
	xorl	%eax, %eax
	addq	$8, %rsp
	popq	%rbx
Ltmp34:
	popq	%r14
	popq	%r15
	popq	%rbp
	retq
Ltmp35:
Lfunc_end1:
	.cfi_endproc
                                        ## -- End function
	.section	__TEXT,__literal8,8byte_literals
	.p2align	3               ## -- Begin function main
LCPI2_0:
	.quad	4696837146684686336     ## double 1.0E+6
	.section	__TEXT,__text,regular,pure_instructions
	.globl	_main
	.p2align	4, 0x90
_main:                                  ## @main
Lfunc_begin2:
	.loc	3 96 0                  ## simplesync.c:96:0
	.cfi_startproc
## %bb.0:
	##DEBUG_VALUE: main:argc <- $edi
	##DEBUG_VALUE: main:argv <- $rsi
	pushq	%rbp
	.cfi_def_cfa_offset 16
	.cfi_offset %rbp, -16
	movq	%rsp, %rbp
	.cfi_def_cfa_register %rbp
	pushq	%r14
	pushq	%rbx
	subq	$64, %rsp
	.cfi_offset %rbx, -32
	.cfi_offset %r14, -24
	leaq	-72(%rbp), %rdi
Ltmp36:
	##DEBUG_VALUE: main:argc <- [DW_OP_LLVM_entry_value 1] $edi
	.loc	3 100 9 prologue_end    ## simplesync.c:100:9
	xorl	%esi, %esi
Ltmp37:
	##DEBUG_VALUE: main:argv <- [DW_OP_LLVM_entry_value 1] $rsi
	callq	_gettimeofday
Ltmp38:
	##DEBUG_VALUE: main:val <- 0
	.loc	3 105 13                ## simplesync.c:105:13
	movl	$0, -20(%rbp)
Ltmp39:
	.loc	3 110 13                ## simplesync.c:110:13
	movq	_lock@GOTPCREL(%rip), %rdi
	xorl	%esi, %esi
	callq	_pthread_mutex_init
Ltmp40:
	.loc	3 110 45 is_stmt 0      ## simplesync.c:110:45
	testl	%eax, %eax
Ltmp41:
	.loc	3 110 13                ## simplesync.c:110:13
	je	LBB2_2
Ltmp42:
## %bb.1:
	##DEBUG_VALUE: main:val <- 0
	##DEBUG_VALUE: main:argv <- [DW_OP_LLVM_entry_value 1] $rsi
	##DEBUG_VALUE: main:argc <- [DW_OP_LLVM_entry_value 1] $edi
	.loc	3 112 17 is_stmt 1      ## simplesync.c:112:17
	leaq	L_str(%rip), %rdi
	callq	_puts
Ltmp43:
	.loc	3 0 17 is_stmt 0        ## simplesync.c:0:17
	movl	$1, %ebx
	jmp	LBB2_9
Ltmp44:
LBB2_2:
	##DEBUG_VALUE: main:val <- 0
	##DEBUG_VALUE: main:argv <- [DW_OP_LLVM_entry_value 1] $rsi
	##DEBUG_VALUE: main:argc <- [DW_OP_LLVM_entry_value 1] $edi
	##DEBUG_VALUE: main:val <- [DW_OP_constu 20, DW_OP_minus, DW_OP_deref] $rbp
	##DEBUG_VALUE: main:t1 <- [DW_OP_constu 40, DW_OP_minus, DW_OP_deref] $rbp
	.loc	3 115 15 is_stmt 1      ## simplesync.c:115:15
	leaq	_increase_fn(%rip), %rdx
	leaq	-40(%rbp), %rdi
	leaq	-20(%rbp), %rcx
	xorl	%esi, %esi
	callq	_pthread_create
Ltmp45:
	##DEBUG_VALUE: main:ret <- $eax
	.loc	3 116 13                ## simplesync.c:116:13
	testl	%eax, %eax
Ltmp46:
	.loc	3 116 13 is_stmt 0      ## simplesync.c:116:13
	jne	LBB2_10
Ltmp47:
## %bb.3:
	##DEBUG_VALUE: main:t1 <- [DW_OP_constu 40, DW_OP_minus, DW_OP_deref] $rbp
	##DEBUG_VALUE: main:val <- [DW_OP_constu 20, DW_OP_minus, DW_OP_deref] $rbp
	##DEBUG_VALUE: main:ret <- $eax
	##DEBUG_VALUE: main:argv <- [DW_OP_LLVM_entry_value 1] $rsi
	##DEBUG_VALUE: main:argc <- [DW_OP_LLVM_entry_value 1] $edi
	##DEBUG_VALUE: main:val <- [DW_OP_constu 20, DW_OP_minus, DW_OP_deref] $rbp
	##DEBUG_VALUE: main:t2 <- [DW_OP_constu 32, DW_OP_minus, DW_OP_deref] $rbp
	.loc	3 120 15 is_stmt 1      ## simplesync.c:120:15
	leaq	_decrease_fn(%rip), %rdx
	leaq	-32(%rbp), %rdi
	leaq	-20(%rbp), %rcx
	xorl	%esi, %esi
	callq	_pthread_create
Ltmp48:
	##DEBUG_VALUE: main:ret <- $eax
	.loc	3 121 13                ## simplesync.c:121:13
	testl	%eax, %eax
Ltmp49:
	.loc	3 121 13 is_stmt 0      ## simplesync.c:121:13
	jne	LBB2_11
Ltmp50:
## %bb.4:
	##DEBUG_VALUE: main:t2 <- [DW_OP_constu 32, DW_OP_minus, DW_OP_deref] $rbp
	##DEBUG_VALUE: main:t1 <- [DW_OP_constu 40, DW_OP_minus, DW_OP_deref] $rbp
	##DEBUG_VALUE: main:val <- [DW_OP_constu 20, DW_OP_minus, DW_OP_deref] $rbp
	##DEBUG_VALUE: main:ret <- $eax
	##DEBUG_VALUE: main:argv <- [DW_OP_LLVM_entry_value 1] $rsi
	##DEBUG_VALUE: main:argc <- [DW_OP_LLVM_entry_value 1] $edi
	.loc	3 129 28 is_stmt 1      ## simplesync.c:129:28
	movq	-40(%rbp), %rdi
Ltmp51:
	##DEBUG_VALUE: main:t1 <- $rdi
	.loc	3 129 15 is_stmt 0      ## simplesync.c:129:15
	xorl	%esi, %esi
	callq	_pthread_join
Ltmp52:
	##DEBUG_VALUE: main:ret <- $eax
	.loc	3 130 13 is_stmt 1      ## simplesync.c:130:13
	testl	%eax, %eax
Ltmp53:
	.loc	3 130 13 is_stmt 0      ## simplesync.c:130:13
	jne	LBB2_5
Ltmp54:
LBB2_6:
	##DEBUG_VALUE: main:t2 <- [DW_OP_constu 32, DW_OP_minus, DW_OP_deref] $rbp
	##DEBUG_VALUE: main:val <- [DW_OP_constu 20, DW_OP_minus, DW_OP_deref] $rbp
	##DEBUG_VALUE: main:argv <- [DW_OP_LLVM_entry_value 1] $rsi
	##DEBUG_VALUE: main:argc <- [DW_OP_LLVM_entry_value 1] $edi
	.loc	3 132 28 is_stmt 1      ## simplesync.c:132:28
	movq	-32(%rbp), %rdi
Ltmp55:
	##DEBUG_VALUE: main:t2 <- $rdi
	.loc	3 132 15 is_stmt 0      ## simplesync.c:132:15
	xorl	%esi, %esi
	callq	_pthread_join
Ltmp56:
	##DEBUG_VALUE: main:ret <- $eax
	.loc	3 133 13 is_stmt 1      ## simplesync.c:133:13
	testl	%eax, %eax
Ltmp57:
	.loc	3 133 13 is_stmt 0      ## simplesync.c:133:13
	jne	LBB2_7
Ltmp58:
LBB2_8:
	##DEBUG_VALUE: main:val <- [DW_OP_constu 20, DW_OP_minus, DW_OP_deref] $rbp
	##DEBUG_VALUE: main:argv <- [DW_OP_LLVM_entry_value 1] $rsi
	##DEBUG_VALUE: main:argc <- [DW_OP_LLVM_entry_value 1] $edi
	##DEBUG_VALUE: main:val <- undef
	.loc	3 139 19 is_stmt 1      ## simplesync.c:139:19
	xorl	%ebx, %ebx
	cmpl	$0, -20(%rbp)
	sete	%bl
Ltmp59:
	##DEBUG_VALUE: main:ok <- $ebx
	.loc	3 145 37                ## simplesync.c:145:37
	leaq	L_.str.9(%rip), %rax
	leaq	L_.str.10(%rip), %r14
	cmoveq	%rax, %r14
	leaq	-56(%rbp), %rdi
	.loc	3 140 9                 ## simplesync.c:140:9
	xorl	%esi, %esi
	callq	_gettimeofday
Ltmp60:
	.loc	3 141 27                ## simplesync.c:141:27
	movq	-56(%rbp), %rax
	.loc	3 142 52                ## simplesync.c:142:52
	movslq	-48(%rbp), %rcx
	.loc	3 142 70 is_stmt 0      ## simplesync.c:142:70
	movslq	-64(%rbp), %rdx
	.loc	3 141 34 is_stmt 1      ## simplesync.c:141:34
	subq	-72(%rbp), %rax
Ltmp61:
	##DEBUG_VALUE: main:total <- $rax
	.loc	3 142 36                ## simplesync.c:142:36
	imulq	$1000000, %rax, %rax    ## imm = 0xF4240
Ltmp62:
	.loc	3 142 46 is_stmt 0      ## simplesync.c:142:46
	addq	%rcx, %rax
	.loc	3 142 61                ## simplesync.c:142:61
	subq	%rdx, %rax
	.loc	3 142 28                ## simplesync.c:142:28
	cvtsi2sd	%rax, %xmm0
Ltmp63:
	##DEBUG_VALUE: main:micro_tot <- $xmm0
	.loc	3 143 50 is_stmt 1      ## simplesync.c:143:50
	divsd	LCPI2_0(%rip), %xmm0
Ltmp64:
	.loc	3 143 9 is_stmt 0       ## simplesync.c:143:9
	leaq	L_.str.7(%rip), %rdi
	movb	$1, %al
	callq	_printf
Ltmp65:
	.loc	3 145 55 is_stmt 1      ## simplesync.c:145:55
	movl	-20(%rbp), %edx
Ltmp66:
	##DEBUG_VALUE: main:val <- $edx
	.loc	3 145 9 is_stmt 0       ## simplesync.c:145:9
	leaq	L_.str.8(%rip), %rdi
	movq	%r14, %rsi
	xorl	%eax, %eax
	callq	_printf
Ltmp67:
LBB2_9:
	##DEBUG_VALUE: main:argv <- [DW_OP_LLVM_entry_value 1] $rsi
	##DEBUG_VALUE: main:argc <- [DW_OP_LLVM_entry_value 1] $edi
	.loc	3 148 1 is_stmt 1       ## simplesync.c:148:1
	movl	%ebx, %eax
	addq	$64, %rsp
	popq	%rbx
	popq	%r14
	popq	%rbp
	retq
Ltmp68:
LBB2_5:
	##DEBUG_VALUE: main:t2 <- [DW_OP_constu 32, DW_OP_minus, DW_OP_deref] $rbp
	##DEBUG_VALUE: main:val <- [DW_OP_constu 20, DW_OP_minus, DW_OP_deref] $rbp
	##DEBUG_VALUE: main:ret <- $eax
	##DEBUG_VALUE: main:argv <- [DW_OP_LLVM_entry_value 1] $rsi
	##DEBUG_VALUE: main:argc <- [DW_OP_LLVM_entry_value 1] $edi
	.loc	3 0 0 is_stmt 0         ## simplesync.c:0:0
	movl	%eax, %ebx
Ltmp69:
	##DEBUG_VALUE: main:ret <- $ebx
	.loc	3 131 17 is_stmt 1      ## simplesync.c:131:17
	callq	___error
Ltmp70:
	movl	%ebx, (%rax)
	leaq	L_.str.6(%rip), %rdi
	callq	_perror
Ltmp71:
	.loc	3 0 17 is_stmt 0        ## simplesync.c:0:17
	jmp	LBB2_6
Ltmp72:
LBB2_7:
	##DEBUG_VALUE: main:val <- [DW_OP_constu 20, DW_OP_minus, DW_OP_deref] $rbp
	##DEBUG_VALUE: main:ret <- $eax
	##DEBUG_VALUE: main:argv <- [DW_OP_LLVM_entry_value 1] $rsi
	##DEBUG_VALUE: main:argc <- [DW_OP_LLVM_entry_value 1] $edi
	movl	%eax, %ebx
Ltmp73:
	##DEBUG_VALUE: main:ret <- $ebx
	.loc	3 134 17 is_stmt 1      ## simplesync.c:134:17
	callq	___error
Ltmp74:
	movl	%ebx, (%rax)
	leaq	L_.str.6(%rip), %rdi
	callq	_perror
Ltmp75:
	.loc	3 0 17 is_stmt 0        ## simplesync.c:0:17
	jmp	LBB2_8
Ltmp76:
LBB2_10:
	##DEBUG_VALUE: main:t1 <- [DW_OP_constu 40, DW_OP_minus, DW_OP_deref] $rbp
	##DEBUG_VALUE: main:val <- [DW_OP_constu 20, DW_OP_minus, DW_OP_deref] $rbp
	##DEBUG_VALUE: main:ret <- $eax
	##DEBUG_VALUE: main:argv <- [DW_OP_LLVM_entry_value 1] $rsi
	##DEBUG_VALUE: main:argc <- [DW_OP_LLVM_entry_value 1] $edi
	.loc	3 117 17 is_stmt 1      ## simplesync.c:117:17
	movl	%eax, %edi
	callq	_main.cold.2
Ltmp77:
LBB2_11:
	##DEBUG_VALUE: main:t2 <- [DW_OP_constu 32, DW_OP_minus, DW_OP_deref] $rbp
	##DEBUG_VALUE: main:t1 <- [DW_OP_constu 40, DW_OP_minus, DW_OP_deref] $rbp
	##DEBUG_VALUE: main:val <- [DW_OP_constu 20, DW_OP_minus, DW_OP_deref] $rbp
	##DEBUG_VALUE: main:ret <- $eax
	##DEBUG_VALUE: main:argv <- [DW_OP_LLVM_entry_value 1] $rsi
	##DEBUG_VALUE: main:argc <- [DW_OP_LLVM_entry_value 1] $edi
	.loc	3 122 17                ## simplesync.c:122:17
	movl	%eax, %edi
	callq	_main.cold.1
Ltmp78:
Lfunc_end2:
	.cfi_endproc
	.file	4 "/Library/Developer/CommandLineTools/SDKs/MacOSX.sdk/usr/include/sys" "time.h"
	.file	5 "/Library/Developer/CommandLineTools/SDKs/MacOSX.sdk/usr/include/i386" "_types.h"
	.file	6 "/Library/Developer/CommandLineTools/SDKs/MacOSX.sdk/usr/include/sys/_types" "_timeval.h"
	.file	7 "/Library/Developer/CommandLineTools/SDKs/MacOSX.sdk/usr/include/sys" "_types.h"
	.file	8 "/Library/Developer/CommandLineTools/SDKs/MacOSX.sdk/usr/include" "pthread.h"
	.file	9 "/Library/Developer/CommandLineTools/SDKs/MacOSX.sdk/usr/include" "stdio.h"
                                        ## -- End function
	.p2align	4, 0x90         ## -- Begin function main.cold.1
_main.cold.1:                           ## @main.cold.1
Lfunc_begin3:
	.loc	3 0 0                   ## simplesync.c:0:0
	.cfi_startproc
## %bb.0:
	pushq	%rbp
	.cfi_def_cfa_offset 16
	.cfi_offset %rbp, -16
	movq	%rsp, %rbp
	.cfi_def_cfa_register %rbp
	pushq	%rbx
	pushq	%rax
	.cfi_offset %rbx, -24
	movl	%edi, %ebx
Ltmp79:
	.loc	3 122 17 prologue_end   ## simplesync.c:122:17
	callq	___error
	movl	%ebx, (%rax)
	leaq	L_.str.5(%rip), %rdi
	callq	_perror
	pushq	$1
	popq	%rdi
	.loc	3 123 17                ## simplesync.c:123:17
	callq	_exit
Ltmp80:
Lfunc_end3:
	.cfi_endproc
                                        ## -- End function
	.p2align	4, 0x90         ## -- Begin function main.cold.2
_main.cold.2:                           ## @main.cold.2
Lfunc_begin4:
	.loc	3 0 0                   ## simplesync.c:0:0
	.cfi_startproc
## %bb.0:
	pushq	%rbp
	.cfi_def_cfa_offset 16
	.cfi_offset %rbp, -16
	movq	%rsp, %rbp
	.cfi_def_cfa_register %rbp
	pushq	%rbx
	pushq	%rax
	.cfi_offset %rbx, -24
	movl	%edi, %ebx
Ltmp81:
	.loc	3 117 17 prologue_end   ## simplesync.c:117:17
	callq	___error
	movl	%ebx, (%rax)
	leaq	L_.str.5(%rip), %rdi
	callq	_perror
	pushq	$1
	popq	%rdi
	.loc	3 118 17                ## simplesync.c:118:17
	callq	_exit
Ltmp82:
Lfunc_end4:
	.cfi_endproc
                                        ## -- End function
	.section	__TEXT,__cstring,cstring_literals
L_.str:                                 ## @.str
	.asciz	"About to increase variable %d times\n"

L_.str.1:                               ## @.str.1
	.asciz	"Done increasing variable.\n"

L_.str.2:                               ## @.str.2
	.asciz	"About to decrease variable %d times\n"

L_.str.3:                               ## @.str.3
	.asciz	"Done decreasing variable.\n"

	.comm	_lock,64,3              ## @lock
L_.str.5:                               ## @.str.5
	.asciz	"pthread_create"

L_.str.6:                               ## @.str.6
	.asciz	"pthread_join"

L_.str.7:                               ## @.str.7
	.asciz	"Execution Time:%lf \n"

L_.str.8:                               ## @.str.8
	.asciz	"%sOK, val = %d.\n"

L_.str.9:                               ## @.str.9
	.space	1

L_.str.10:                              ## @.str.10
	.asciz	"NOT "

L_str:                                  ## @str
	.asciz	"\n mutex init failed"

	.file	10 "/Library/Developer/CommandLineTools/SDKs/MacOSX.sdk/usr/include/sys/_pthread" "_pthread_t.h"